target datalayout = "e-m:e-p270:32:32-p271:32:32-p272:64:64-i64:64-i128:128-f80:128-n8:16:32:64-S128"
target triple = "x86_64-pc-linux-gnu"

%struct.evp_pkey_method_st = type { i32, i32, ptr, ptr, ptr, ptr, ptr, ptr, ptr, ptr, ptr, ptr, ptr, ptr, ptr, ptr, ptr, ptr, ptr, ptr, ptr, ptr, ptr, ptr, ptr, ptr, ptr, ptr, ptr, ptr, ptr, ptr, ptr }
%struct.evp_pkey_ctx_st = type { i32, ptr, ptr, ptr, ptr, %union.anon, %struct.anon.4, ptr, ptr, ptr, i32, i32, ptr, ptr, ptr, ptr, ptr, i8, ptr }
%union.anon = type { %struct.anon.0 }
%struct.anon.0 = type { ptr, ptr }
%struct.anon.4 = type { ptr, ptr, i64, i8 }

@.str = private unnamed_addr constant [34 x i8] c"../openssl/crypto/evp/pmeth_lib.c\00", align 1

; Function Attrs: nounwind uwtable
define i32 @EVP_PKEY_CTX_hex2ctrl(ptr noundef %0, i32 noundef %1, ptr noundef %2) #0 {
  %4 = alloca i32, align 4
  %5 = alloca ptr, align 8
  %6 = alloca i32, align 4
  %7 = alloca ptr, align 8
  %8 = alloca ptr, align 8
  %9 = alloca i64, align 8
  %10 = alloca i32, align 4
  %11 = alloca i32, align 4
  store ptr %0, ptr %5, align 8, !tbaa !18
  store i32 %1, ptr %6, align 4, !tbaa !3
  store ptr %2, ptr %7, align 8, !tbaa !33
  call void @llvm.lifetime.start.p0(i64 8, ptr %8) #8
  call void @llvm.lifetime.start.p0(i64 8, ptr %9) #8
  call void @llvm.lifetime.start.p0(i64 4, ptr %10) #8
  store i32 -1, ptr %10, align 4, !tbaa !3
  %12 = load ptr, ptr %7, align 8, !tbaa !33
  %13 = call ptr @OPENSSL_hexstr2buf(ptr noundef %12, ptr noundef %9)
  store ptr %13, ptr %8, align 8, !tbaa !33
  %14 = load ptr, ptr %8, align 8, !tbaa !33
  %15 = icmp eq ptr %14, null
  br i1 %15, label %16, label %17

16:                                               ; preds = %3
  store i32 0, ptr %4, align 4
  store i32 1, ptr %11, align 4
  br label %35

17:                                               ; preds = %3
  %18 = load i64, ptr %9, align 8, !tbaa !77
  %19 = icmp sle i64 %18, 2147483647
  br i1 %19, label %20, label %32

20:                                               ; preds = %17
  %21 = load ptr, ptr %5, align 8, !tbaa !18
  %22 = getelementptr inbounds nuw %struct.evp_pkey_ctx_st, ptr %21, i32 0, i32 12
  %23 = load ptr, ptr %22, align 8, !tbaa !55
  %24 = getelementptr inbounds nuw %struct.evp_pkey_method_st, ptr %23, i32 0, i32 25
  %25 = load ptr, ptr %24, align 8, !tbaa !118
  %26 = load ptr, ptr %5, align 8, !tbaa !18
  %27 = load i32, ptr %6, align 4, !tbaa !3
  %28 = load i64, ptr %9, align 8, !tbaa !77
  %29 = trunc i64 %28 to i32
  %30 = load ptr, ptr %8, align 8, !tbaa !33
  %31 = call i32 %25(ptr noundef %26, i32 noundef %27, i32 noundef %29, ptr noundef %30)
  store i32 %31, ptr %10, align 4, !tbaa !3
  br label %32

32:                                               ; preds = %20, %17
  %33 = load ptr, ptr %8, align 8, !tbaa !33
  call void @CRYPTO_free(ptr noundef %33, ptr noundef @.str, i32 noundef 1604)
  %34 = load i32, ptr %10, align 4, !tbaa !3
  store i32 %34, ptr %4, align 4
  store i32 1, ptr %11, align 4
  br label %35

35:                                               ; preds = %32, %16
  call void @llvm.lifetime.end.p0(i64 4, ptr %10) #8
  call void @llvm.lifetime.end.p0(i64 8, ptr %9) #8
  call void @llvm.lifetime.end.p0(i64 8, ptr %8) #8
  %36 = load i32, ptr %4, align 4
  ret i32 %36
}