; Function Attrs: nounwind uwtable
define i32 @EVP_PKEY_CTX_hex2ctrl(ptr noundef %0, i32 noundef %1, ptr noundef %2) local_unnamed_addr #0 {
  %4 = alloca i64, align 8
  call void @llvm.lifetime.start.p0(i64 8, ptr nonnull %4) #10
  %5 = call ptr @OPENSSL_hexstr2buf(ptr noundef %2, ptr noundef nonnull %4) #10
  %6 = icmp eq ptr %5, null
  br i1 %6, label %18, label %7

7:                                                ; preds = %3
  %8 = load i64, ptr %4, align 8, !tbaa !100
  %9 = icmp slt i64 %8, 2147483648
  br i1 %9, label %10, label %17

10:                                               ; preds = %7
  %11 = getelementptr inbounds nuw i8, ptr %0, i64 120
  %12 = load ptr, ptr %11, align 8, !tbaa !46
  %13 = getelementptr inbounds nuw i8, ptr %12, i64 192
  %14 = load ptr, ptr %13, align 8, !tbaa !106
  %15 = trunc i64 %8 to i32
  %16 = call i32 %14(ptr noundef %0, i32 noundef %1, i32 noundef %15, ptr noundef nonnull %5) #10
  br label %17

17:                                               ; preds = %10, %7
  %.0 = phi i32 [ %16, %10 ], [ -1, %7 ]
  call void @CRYPTO_free(ptr noundef nonnull %5, ptr noundef nonnull @.str, i32 noundef 1604) #10
  br label %18

18:                                               ; preds = %3, %17
  %.08 = phi i32 [ %.0, %17 ], [ 0, %3 ]
  call void @llvm.lifetime.end.p0(i64 8, ptr nonnull %4) #10
  ret i32 %.08
}